target datalayout = "e-m:e-p270:32:32-p271:32:32-p272:64:64-i64:64-i128:128-f80:128-n8:16:32:64-S128"
target triple = "x86_64-pc-linux-gnu"

%struct._packet_info = type { ptr, ptr, i32, i32, %struct.nstime_t, %struct.nstime_t, %struct.nstime_t, i8, ptr, ptr, ptr, ptr, %struct._address, %struct._address, %struct._address, %struct._address, %struct._address, %struct._address, i32, ptr, i8, [3 x i8], %struct.anon, i32, i32, i32, i32, ptr, i8, ptr, ptr, i16, i16, i32, i32, i16, i32, i32, ptr, ptr, ptr, i8, i8, i16, i16, i16, i32, i16, i16, ptr, ptr, ptr, ptr, ptr, i32, i32 }
%struct.nstime_t = type { i64, i32 }
%struct._address = type { i32, i32, ptr, ptr }
%struct.anon = type { i8, [3 x i8] }
%struct._asn1_ctx_t = type { i32, i32, i8, ptr, ptr, ptr, ptr, ptr, %struct.anon.0, %struct.anon.3, %struct.anon.4, ptr }
%struct.anon.0 = type { i32, i8, i8, i8, ptr, ptr, i32, i32, ptr, ptr, ptr, %union.anon }
%union.anon = type { %struct.anon.1 }
%struct.anon.1 = type { ptr }
%struct.anon.3 = type { ptr, ptr, ptr }
%struct.anon.4 = type { i32, i8, ptr, i32, i32, ptr, ptr, ptr, %union.anon.5 }
%union.anon.5 = type { %struct.anon.6 }
%struct.anon.6 = type { ptr }
%struct.s1ap_private_data = type { ptr, i32, i32, i32, i32, i32, i8, ptr, ptr, ptr, i16, i8, i8, i32 }
%struct.s1ap_supported_ta = type { i16, ptr }
%struct.s1ap_tai = type { i32, i16 }

@proto_s1ap = internal global i32 0, align 4

; Function Attrs: null_pointer_is_valid sspstrong uwtable
define internal ptr @s1ap_get_private_data(ptr noundef %0) #0 {
  %2 = alloca ptr, align 8
  %3 = alloca ptr, align 8
  store ptr %0, ptr %2, align 8
  call void @llvm.lifetime.start.p0(i64 8, ptr %3) #8
  %4 = load ptr, ptr %2, align 8
  %5 = getelementptr inbounds nuw %struct._packet_info, ptr %4, i32 0, i32 51
  %6 = load ptr, ptr %5, align 8
  %7 = load ptr, ptr %2, align 8
  %8 = load i32, ptr @proto_s1ap, align 4
  %9 = call ptr @p_get_proto_data(ptr noundef %6, ptr noundef %7, i32 noundef %8, i32 noundef 0)
  store ptr %9, ptr %3, align 8
  %10 = load ptr, ptr %3, align 8
  %11 = icmp ne ptr %10, null
  br i1 %11, label %23, label %12

12:                                               ; preds = %1
  %13 = load ptr, ptr %2, align 8
  %14 = getelementptr inbounds nuw %struct._packet_info, ptr %13, i32 0, i32 51
  %15 = load ptr, ptr %14, align 8
  %16 = call noalias ptr @wmem_alloc0(ptr noundef %15, i64 noundef 64) #11
  store ptr %16, ptr %3, align 8
  %17 = load ptr, ptr %2, align 8
  %18 = getelementptr inbounds nuw %struct._packet_info, ptr %17, i32 0, i32 51
  %19 = load ptr, ptr %18, align 8
  %20 = load ptr, ptr %2, align 8
  %21 = load i32, ptr @proto_s1ap, align 4
  %22 = load ptr, ptr %3, align 8
  call void @p_add_proto_data(ptr noundef %19, ptr noundef %20, i32 noundef %21, i32 noundef 0, ptr noundef %22)
  br label %23

23:                                               ; preds = %12, %1
  %24 = load ptr, ptr %3, align 8
  call void @llvm.lifetime.end.p0(i64 8, ptr %3) #8
  ret ptr %24
}

; Function Attrs: null_pointer_is_valid sspstrong uwtable
define internal i32 @dissect_s1ap_PLMNidentity(ptr noundef %0, i32 noundef %1, ptr noundef %2, ptr noundef %3, i32 noundef %4) #0 {
  %6 = alloca i32, align 4
  %7 = alloca ptr, align 8
  %8 = alloca i32, align 4
  %9 = alloca ptr, align 8
  %10 = alloca ptr, align 8
  %11 = alloca i32, align 4
  %12 = alloca ptr, align 8
  %13 = alloca ptr, align 8
  %14 = alloca i32, align 4
  %15 = alloca i32, align 4
  %16 = alloca i32, align 4
  store ptr %0, ptr %7, align 8
  store i32 %1, ptr %8, align 4
  store ptr %2, ptr %9, align 8
  store ptr %3, ptr %10, align 8
  store i32 %4, ptr %11, align 4
  call void @llvm.lifetime.start.p0(i64 8, ptr %12) #8
  store ptr null, ptr %12, align 8
  call void @llvm.lifetime.start.p0(i64 8, ptr %13) #8
  %17 = load ptr, ptr %9, align 8
  %18 = getelementptr inbounds nuw %struct._asn1_ctx_t, ptr %17, i32 0, i32 3
  %19 = load ptr, ptr %18, align 8
  %20 = call ptr @s1ap_get_private_data(ptr noundef %19)
  store ptr %20, ptr %13, align 8
  call void @llvm.lifetime.start.p0(i64 4, ptr %14) #8
  %21 = load ptr, ptr %13, align 8
  %22 = getelementptr inbounds nuw %struct.s1ap_private_data, ptr %21, i32 0, i32 13
  %23 = load i32, ptr %22, align 4
  store i32 %23, ptr %14, align 4
  %24 = load ptr, ptr %13, align 8
  %25 = getelementptr inbounds nuw %struct.s1ap_private_data, ptr %24, i32 0, i32 13
  store i32 0, ptr %25, align 4
  %26 = load ptr, ptr %7, align 8
  %27 = load i32, ptr %8, align 4
  %28 = load ptr, ptr %9, align 8
  %29 = load ptr, ptr %10, align 8
  %30 = load i32, ptr %11, align 4
  %31 = call i32 @dissect_per_octet_string(ptr noundef %26, i32 noundef %27, ptr noundef %28, ptr noundef %29, i32 noundef %30, i32 noundef 3, i32 noundef 3, i1 noundef zeroext false, ptr noundef %12)
  store i32 %31, ptr %8, align 4
  %32 = load ptr, ptr %7, align 8
  %33 = call i32 @tvb_reported_length(ptr noundef %32)
  %34 = icmp eq i32 %33, 0
  br i1 %34, label %35, label %37

35:                                               ; preds = %5
  %36 = load i32, ptr %8, align 4
  store i32 %36, ptr %6, align 4
  store i32 1, ptr %15, align 4
  br label %77

37:                                               ; preds = %5
  %38 = load ptr, ptr %12, align 8
  %39 = icmp ne ptr %38, null
  br i1 %39, label %42, label %40

40:                                               ; preds = %37
  %41 = load i32, ptr %8, align 4
  store i32 %41, ptr %6, align 4
  store i32 1, ptr %15, align 4
  br label %77

42:                                               ; preds = %37
  %43 = load ptr, ptr %12, align 8
  %44 = load ptr, ptr %9, align 8
  %45 = getelementptr inbounds nuw %struct._asn1_ctx_t, ptr %44, i32 0, i32 3
  %46 = load ptr, ptr %45, align 8
  %47 = load ptr, ptr %10, align 8
  %48 = load i32, ptr %14, align 4
  %49 = call i32 @dissect_e212_mcc_mnc(ptr noundef %43, ptr noundef %46, ptr noundef %47, i32 noundef 0, i32 noundef %48, i1 noundef zeroext false)
  %50 = load ptr, ptr %13, align 8
  %51 = getelementptr inbounds nuw %struct.s1ap_private_data, ptr %50, i32 0, i32 7
  %52 = load ptr, ptr %51, align 8
  %53 = icmp ne ptr %52, null
  br i1 %53, label %54, label %62

54:                                               ; preds = %42
  call void @llvm.lifetime.start.p0(i64 4, ptr %16) #8
  %55 = load ptr, ptr %12, align 8
  %56 = call i32 @tvb_get_ntoh24(ptr noundef %55, i32 noundef 0)
  store i32 %56, ptr %16, align 4
  %57 = load ptr, ptr %13, align 8
  %58 = getelementptr inbounds nuw %struct.s1ap_private_data, ptr %57, i32 0, i32 7
  %59 = load ptr, ptr %58, align 8
  %60 = getelementptr inbounds nuw %struct.s1ap_supported_ta, ptr %59, i32 0, i32 1
  %61 = load ptr, ptr %60, align 8
  call void @wmem_array_append(ptr noundef %61, ptr noundef %16, i32 noundef 1)
  call void @llvm.lifetime.end.p0(i64 4, ptr %16) #8
  br label %75

62:                                               ; preds = %42
  %63 = load ptr, ptr %13, align 8
  %64 = getelementptr inbounds nuw %struct.s1ap_private_data, ptr %63, i32 0, i32 9
  %65 = load ptr, ptr %64, align 8
  %66 = icmp ne ptr %65, null
  br i1 %66, label %67, label %74

67:                                               ; preds = %62
  %68 = load ptr, ptr %12, align 8
  %69 = call i32 @tvb_get_ntoh24(ptr noundef %68, i32 noundef 0)
  %70 = load ptr, ptr %13, align 8
  %71 = getelementptr inbounds nuw %struct.s1ap_private_data, ptr %70, i32 0, i32 9
  %72 = load ptr, ptr %71, align 8
  %73 = getelementptr inbounds nuw %struct.s1ap_tai, ptr %72, i32 0, i32 0
  store i32 %69, ptr %73, align 4
  br label %74

74:                                               ; preds = %67, %62
  br label %75

75:                                               ; preds = %74, %54
  %76 = load i32, ptr %8, align 4
  store i32 %76, ptr %6, align 4
  store i32 1, ptr %15, align 4
  br label %77

77:                                               ; preds = %75, %40, %35
  call void @llvm.lifetime.end.p0(i64 4, ptr %14) #8
  call void @llvm.lifetime.end.p0(i64 8, ptr %13) #8
  call void @llvm.lifetime.end.p0(i64 8, ptr %12) #8
  %78 = load i32, ptr %6, align 4
  ret i32 %78
}