; Function Attrs: null_pointer_is_valid sspstrong uwtable
define internal i32 @dissect_s1ap_PLMNidentity(ptr noundef %0, i32 noundef %1, ptr noundef %2, ptr noundef %3, i32 noundef %4) #0 {
  %6 = alloca ptr, align 8
  %7 = alloca i32, align 4
  call void @llvm.lifetime.start.p0(i64 8, ptr nonnull %6) #8
  store ptr null, ptr %6, align 8
  %8 = getelementptr inbounds nuw i8, ptr %2, i64 16
  %9 = load ptr, ptr %8, align 8
  %10 = getelementptr inbounds nuw i8, ptr %9, i64 408
  %11 = load ptr, ptr %10, align 8
  %12 = load i32, ptr @proto_s1ap, align 4
  %13 = tail call ptr @p_get_proto_data(ptr noundef %11, ptr noundef %9, i32 noundef %12, i32 noundef 0)
  %.not.i = icmp eq ptr %13, null
  br i1 %.not.i, label %14, label %s1ap_get_private_data.exit

14:                                               ; preds = %5
  %15 = load ptr, ptr %10, align 8
  %16 = tail call noalias dereferenceable_or_null(64) ptr @wmem_alloc0(ptr noundef %15, i64 noundef 64) #9
  %17 = load ptr, ptr %10, align 8
  %18 = load i32, ptr @proto_s1ap, align 4
  tail call void @p_add_proto_data(ptr noundef %17, ptr noundef %9, i32 noundef %18, i32 noundef 0, ptr noundef %16)
  br label %s1ap_get_private_data.exit

s1ap_get_private_data.exit:                       ; preds = %5, %14
  %.0.i = phi ptr [ %13, %5 ], [ %16, %14 ]
  %19 = getelementptr inbounds nuw i8, ptr %.0.i, i64 60
  %20 = load i32, ptr %19, align 4
  store i32 0, ptr %19, align 4
  %21 = call i32 @dissect_per_octet_string(ptr noundef %0, i32 noundef %1, ptr noundef %2, ptr noundef %3, i32 noundef %4, i32 noundef 3, i32 noundef 3, i1 noundef zeroext false, ptr noundef nonnull %6)
  %22 = call i32 @tvb_reported_length(ptr noundef %0)
  %23 = icmp eq i32 %22, 0
  br i1 %23, label %44, label %24

24:                                               ; preds = %s1ap_get_private_data.exit
  %25 = load ptr, ptr %6, align 8
  %.not = icmp eq ptr %25, null
  br i1 %.not, label %44, label %26

26:                                               ; preds = %24
  %27 = load ptr, ptr %8, align 8
  %28 = call i32 @dissect_e212_mcc_mnc(ptr noundef nonnull %25, ptr noundef %27, ptr noundef %3, i32 noundef 0, i32 noundef %20, i1 noundef zeroext false)
  %29 = getelementptr inbounds nuw i8, ptr %.0.i, i64 32
  %30 = load ptr, ptr %29, align 8
  %.not19 = icmp eq ptr %30, null
  br i1 %.not19, label %37, label %31

31:                                               ; preds = %26
  call void @llvm.lifetime.start.p0(i64 4, ptr nonnull %7) #8
  %32 = load ptr, ptr %6, align 8
  %33 = call i32 @tvb_get_ntoh24(ptr noundef %32, i32 noundef 0)
  store i32 %33, ptr %7, align 4
  %34 = load ptr, ptr %29, align 8
  %35 = getelementptr inbounds nuw i8, ptr %34, i64 8
  %36 = load ptr, ptr %35, align 8
  call void @wmem_array_append(ptr noundef %36, ptr noundef nonnull %7, i32 noundef 1)
  call void @llvm.lifetime.end.p0(i64 4, ptr nonnull %7) #8
  br label %44

37:                                               ; preds = %26
  %38 = getelementptr inbounds nuw i8, ptr %.0.i, i64 48
  %39 = load ptr, ptr %38, align 8
  %.not20 = icmp eq ptr %39, null
  br i1 %.not20, label %44, label %40

40:                                               ; preds = %37
  %41 = load ptr, ptr %6, align 8
  %42 = call i32 @tvb_get_ntoh24(ptr noundef %41, i32 noundef 0)
  %43 = load ptr, ptr %38, align 8
  store i32 %42, ptr %43, align 4
  br label %44

44:                                               ; preds = %31, %40, %37, %24, %s1ap_get_private_data.exit
  call void @llvm.lifetime.end.p0(i64 8, ptr nonnull %6) #8
  ret i32 %21
}